target datalayout = "e-m:e-p270:32:32-p271:32:32-p272:64:64-i64:64-i128:128-f80:128-n8:16:32:64-S128"
target triple = "x86_64-pc-linux-gnu"

%struct.Aig_Obj_t_ = type { %union.anon, ptr, ptr, i64, i32, i32, %union.anon.0 }
%union.anon = type { ptr }
%union.anon.0 = type { ptr }
%struct.Fra_Man_t_ = type { ptr, ptr, ptr, i32, ptr, i32, ptr, ptr, ptr, i32, ptr, ptr, ptr, ptr, i32, ptr, i64, i64, ptr, ptr, i32, ptr, i32, i32, i32, i32, i32, i32, i32, i32, i32, i32, i32, i32, i32, i32, i32, i32, i32, i32, i32, i64, i64, i64, i64, i64, i64, i64, i64, i64, i64, i64 }
%struct.Fra_Sml_t_ = type { ptr, i32, i32, i32, i32, i32, i32, i32, i32, [0 x i32] }

; Function Attrs: inlinehint nounwind uwtable
define internal ptr @Fra_ObjSim(ptr noundef %0, i32 noundef %1) #2 {
  %3 = alloca ptr, align 8
  %4 = alloca i32, align 4
  store ptr %0, ptr %3, align 8, !tbaa !35
  store i32 %1, ptr %4, align 4, !tbaa !8
  %5 = load ptr, ptr %3, align 8, !tbaa !35
  %6 = getelementptr inbounds nuw %struct.Fra_Sml_t_, ptr %5, i32 0, i32 9
  %7 = getelementptr inbounds [0 x i32], ptr %6, i64 0, i64 0
  %8 = load ptr, ptr %3, align 8, !tbaa !35
  %9 = getelementptr inbounds nuw %struct.Fra_Sml_t_, ptr %8, i32 0, i32 4
  %10 = load i32, ptr %9, align 4, !tbaa !32
  %11 = load i32, ptr %4, align 4, !tbaa !8
  %12 = mul nsw i32 %10, %11
  %13 = sext i32 %12 to i64
  %14 = getelementptr inbounds i32, ptr %7, i64 %13
  ret ptr %14
}

; Function Attrs: nounwind uwtable
define i32 @Fra_SmlNodesAreEqual(ptr noundef %0, ptr noundef %1) #0 {
  %3 = alloca i32, align 4
  %4 = alloca ptr, align 8
  %5 = alloca ptr, align 8
  %6 = alloca ptr, align 8
  %7 = alloca ptr, align 8
  %8 = alloca ptr, align 8
  %9 = alloca i32, align 4
  %10 = alloca i32, align 4
  store ptr %0, ptr %4, align 8, !tbaa !3
  store ptr %1, ptr %5, align 8, !tbaa !3
  call void @llvm.lifetime.start.p0(i64 8, ptr %6) #8
  %11 = load ptr, ptr %4, align 8, !tbaa !3
  %12 = getelementptr inbounds nuw %struct.Aig_Obj_t_, ptr %11, i32 0, i32 6
  %13 = load ptr, ptr %12, align 8, !tbaa !10
  store ptr %13, ptr %6, align 8, !tbaa !11
  call void @llvm.lifetime.start.p0(i64 8, ptr %7) #8
  call void @llvm.lifetime.start.p0(i64 8, ptr %8) #8
  call void @llvm.lifetime.start.p0(i64 4, ptr %9) #8
  %14 = load ptr, ptr %6, align 8, !tbaa !11
  %15 = getelementptr inbounds nuw %struct.Fra_Man_t_, ptr %14, i32 0, i32 7
  %16 = load ptr, ptr %15, align 8, !tbaa !13
  %17 = load ptr, ptr %4, align 8, !tbaa !3
  %18 = getelementptr inbounds nuw %struct.Aig_Obj_t_, ptr %17, i32 0, i32 5
  %19 = load i32, ptr %18, align 4, !tbaa !27
  %20 = call ptr @Fra_ObjSim(ptr noundef %16, i32 noundef %19)
  store ptr %20, ptr %7, align 8, !tbaa !29
  %21 = load ptr, ptr %6, align 8, !tbaa !11
  %22 = getelementptr inbounds nuw %struct.Fra_Man_t_, ptr %21, i32 0, i32 7
  %23 = load ptr, ptr %22, align 8, !tbaa !13
  %24 = load ptr, ptr %5, align 8, !tbaa !3
  %25 = getelementptr inbounds nuw %struct.Aig_Obj_t_, ptr %24, i32 0, i32 5
  %26 = load i32, ptr %25, align 4, !tbaa !27
  %27 = call ptr @Fra_ObjSim(ptr noundef %23, i32 noundef %26)
  store ptr %27, ptr %8, align 8, !tbaa !29
  %28 = load ptr, ptr %6, align 8, !tbaa !11
  %29 = getelementptr inbounds nuw %struct.Fra_Man_t_, ptr %28, i32 0, i32 7
  %30 = load ptr, ptr %29, align 8, !tbaa !13
  %31 = getelementptr inbounds nuw %struct.Fra_Sml_t_, ptr %30, i32 0, i32 5
  %32 = load i32, ptr %31, align 8, !tbaa !30
  store i32 %32, ptr %9, align 4, !tbaa !8
  br label %33

33:                                               ; preds = %55, %2
  %34 = load i32, ptr %9, align 4, !tbaa !8
  %35 = load ptr, ptr %6, align 8, !tbaa !11
  %36 = getelementptr inbounds nuw %struct.Fra_Man_t_, ptr %35, i32 0, i32 7
  %37 = load ptr, ptr %36, align 8, !tbaa !13
  %38 = getelementptr inbounds nuw %struct.Fra_Sml_t_, ptr %37, i32 0, i32 4
  %39 = load i32, ptr %38, align 4, !tbaa !32
  %40 = icmp slt i32 %34, %39
  br i1 %40, label %41, label %58

41:                                               ; preds = %33
  %42 = load ptr, ptr %7, align 8, !tbaa !29
  %43 = load i32, ptr %9, align 4, !tbaa !8
  %44 = sext i32 %43 to i64
  %45 = getelementptr inbounds i32, ptr %42, i64 %44
  %46 = load i32, ptr %45, align 4, !tbaa !8
  %47 = load ptr, ptr %8, align 8, !tbaa !29
  %48 = load i32, ptr %9, align 4, !tbaa !8
  %49 = sext i32 %48 to i64
  %50 = getelementptr inbounds i32, ptr %47, i64 %49
  %51 = load i32, ptr %50, align 4, !tbaa !8
  %52 = icmp ne i32 %46, %51
  br i1 %52, label %53, label %54

53:                                               ; preds = %41
  store i32 0, ptr %3, align 4
  store i32 1, ptr %10, align 4
  br label %59

54:                                               ; preds = %41
  br label %55

55:                                               ; preds = %54
  %56 = load i32, ptr %9, align 4, !tbaa !8
  %57 = add nsw i32 %56, 1
  store i32 %57, ptr %9, align 4, !tbaa !8
  br label %33, !llvm.loop !37

58:                                               ; preds = %33
  store i32 1, ptr %3, align 4
  store i32 1, ptr %10, align 4
  br label %59

59:                                               ; preds = %58, %53
  call void @llvm.lifetime.end.p0(i64 4, ptr %9) #8
  call void @llvm.lifetime.end.p0(i64 8, ptr %8) #8
  call void @llvm.lifetime.end.p0(i64 8, ptr %7) #8
  call void @llvm.lifetime.end.p0(i64 8, ptr %6) #8
  %60 = load i32, ptr %3, align 4
  ret i32 %60
}