; Function Attrs: nofree norecurse nosync nounwind memory(read, inaccessiblemem: none) uwtable
define range(i32 0, 2) i32 @Fra_SmlNodesAreEqual(ptr noundef readonly captures(none) %0, ptr noundef readonly captures(none) %1) local_unnamed_addr #0 {
  %3 = getelementptr inbounds nuw i8, ptr %0, i64 40
  %4 = load ptr, ptr %3, align 8, !tbaa !3
  %5 = getelementptr inbounds nuw i8, ptr %4, i64 56
  %6 = load ptr, ptr %5, align 8, !tbaa !6
  %7 = getelementptr inbounds nuw i8, ptr %0, i64 36
  %8 = load i32, ptr %7, align 4, !tbaa !22
  %9 = getelementptr inbounds nuw i8, ptr %6, i64 40
  %10 = getelementptr inbounds nuw i8, ptr %6, i64 20
  %11 = load i32, ptr %10, align 4, !tbaa !25
  %12 = mul nsw i32 %11, %8
  %13 = sext i32 %12 to i64
  %14 = getelementptr inbounds i32, ptr %9, i64 %13
  %15 = getelementptr inbounds nuw i8, ptr %1, i64 36
  %16 = load i32, ptr %15, align 4, !tbaa !22
  %17 = mul nsw i32 %16, %11
  %18 = sext i32 %17 to i64
  %19 = getelementptr inbounds i32, ptr %9, i64 %18
  %20 = getelementptr inbounds nuw i8, ptr %6, i64 24
  %21 = load i32, ptr %20, align 8, !tbaa !27
  %22 = icmp slt i32 %21, %11
  br i1 %22, label %.lr.ph.preheader, label %._crit_edge

.lr.ph.preheader:                                 ; preds = %2
  %23 = sext i32 %21 to i64
  br label %.lr.ph

24:                                               ; preds = %.lr.ph
  %indvars.iv.next = add nsw i64 %indvars.iv, 1
  %lftr.wideiv = trunc i64 %indvars.iv.next to i32
  %exitcond.not = icmp eq i32 %11, %lftr.wideiv
  br i1 %exitcond.not, label %._crit_edge, label %.lr.ph, !llvm.loop !32

.lr.ph:                                           ; preds = %.lr.ph.preheader, %24
  %indvars.iv = phi i64 [ %23, %.lr.ph.preheader ], [ %indvars.iv.next, %24 ]
  %25 = getelementptr inbounds i32, ptr %14, i64 %indvars.iv
  %26 = load i32, ptr %25, align 4, !tbaa !28
  %27 = getelementptr inbounds i32, ptr %19, i64 %indvars.iv
  %28 = load i32, ptr %27, align 4, !tbaa !28
  %.not = icmp eq i32 %26, %28
  br i1 %.not, label %24, label %._crit_edge

._crit_edge:                                      ; preds = %.lr.ph, %24, %2
  %.013 = phi i32 [ 1, %2 ], [ 1, %24 ], [ 0, %.lr.ph ]
  ret i32 %.013
}